
Atmega8Test.elf:     file format elf32-avr

Sections:
Idx Name          Size      VMA       LMA       File off  Algn
  0 .text         000001f6  00000000  00000000  00000074  2**1
                  CONTENTS, ALLOC, LOAD, READONLY, CODE
  1 .data         00000016  00800060  000001f6  0000026a  2**0
                  CONTENTS, ALLOC, LOAD, DATA
  2 .comment      00000030  00000000  00000000  00000280  2**0
                  CONTENTS, READONLY
  3 .note.gnu.avr.deviceinfo 0000003c  00000000  00000000  000002b0  2**2
                  CONTENTS, READONLY
  4 .debug_aranges 00000098  00000000  00000000  000002ec  2**0
                  CONTENTS, READONLY, DEBUGGING
  5 .debug_info   00000f67  00000000  00000000  00000384  2**0
                  CONTENTS, READONLY, DEBUGGING
  6 .debug_abbrev 00000932  00000000  00000000  000012eb  2**0
                  CONTENTS, READONLY, DEBUGGING
  7 .debug_line   00000440  00000000  00000000  00001c1d  2**0
                  CONTENTS, READONLY, DEBUGGING
  8 .debug_frame  00000100  00000000  00000000  00002060  2**2
                  CONTENTS, READONLY, DEBUGGING
  9 .debug_str    00000618  00000000  00000000  00002160  2**0
                  CONTENTS, READONLY, DEBUGGING
 10 .debug_loc    0000022c  00000000  00000000  00002778  2**0
                  CONTENTS, READONLY, DEBUGGING
 11 .debug_ranges 00000088  00000000  00000000  000029a4  2**0
                  CONTENTS, READONLY, DEBUGGING

Disassembly of section .text:

00000000 <__vectors>:
   0:	12 c0       	rjmp	.+36     	; 0x26 <__ctors_end>
   2:	24 c0       	rjmp	.+72     	; 0x4c <__bad_interrupt>
   4:	23 c0       	rjmp	.+70     	; 0x4c <__bad_interrupt>
   6:	22 c0       	rjmp	.+68     	; 0x4c <__bad_interrupt>
   8:	21 c0       	rjmp	.+66     	; 0x4c <__bad_interrupt>
   a:	20 c0       	rjmp	.+64     	; 0x4c <__bad_interrupt>
   c:	1f c0       	rjmp	.+62     	; 0x4c <__bad_interrupt>
   e:	1e c0       	rjmp	.+60     	; 0x4c <__bad_interrupt>
  10:	1d c0       	rjmp	.+58     	; 0x4c <__bad_interrupt>
  12:	1c c0       	rjmp	.+56     	; 0x4c <__bad_interrupt>
  14:	1b c0       	rjmp	.+54     	; 0x4c <__bad_interrupt>
  16:	1a c0       	rjmp	.+52     	; 0x4c <__bad_interrupt>
  18:	19 c0       	rjmp	.+50     	; 0x4c <__bad_interrupt>
  1a:	18 c0       	rjmp	.+48     	; 0x4c <__bad_interrupt>
  1c:	17 c0       	rjmp	.+46     	; 0x4c <__bad_interrupt>
  1e:	16 c0       	rjmp	.+44     	; 0x4c <__bad_interrupt>
  20:	15 c0       	rjmp	.+42     	; 0x4c <__bad_interrupt>
  22:	14 c0       	rjmp	.+40     	; 0x4c <__bad_interrupt>
  24:	13 c0       	rjmp	.+38     	; 0x4c <__bad_interrupt>

00000026 <__ctors_end>:
  26:	11 24       	eor	r1, r1
  28:	1f be       	out	0x3f, r1	; 63
  2a:	cf e5       	ldi	r28, 0x5F	; 95
  2c:	d4 e0       	ldi	r29, 0x04	; 4
  2e:	de bf       	out	0x3e, r29	; 62
  30:	cd bf       	out	0x3d, r28	; 61

00000032 <__do_copy_data>:
  32:	10 e0       	ldi	r17, 0x00	; 0
  34:	a0 e6       	ldi	r26, 0x60	; 96
  36:	b0 e0       	ldi	r27, 0x00	; 0
  38:	e6 ef       	ldi	r30, 0xF6	; 246
  3a:	f1 e0       	ldi	r31, 0x01	; 1
  3c:	02 c0       	rjmp	.+4      	; 0x42 <__SREG__+0x3>
  3e:	05 90       	lpm	r0, Z+
  40:	0d 92       	st	X+, r0
  42:	a6 37       	cpi	r26, 0x76	; 118
  44:	b1 07       	cpc	r27, r17
  46:	d9 f7       	brne	.-10     	; 0x3e <__SP_H__>
  48:	2b d0       	rcall	.+86     	; 0xa0 <main>
  4a:	d3 c0       	rjmp	.+422    	; 0x1f2 <_exit>

0000004c <__bad_interrupt>:
  4c:	d9 cf       	rjmp	.-78     	; 0x0 <__vectors>

0000004e <_ZN9LedDriver12SetOutputPinEs>:

#include "LedDriver.h"
#include <avr/io.h>

void LedDriver::SetOutputPin(short pin)
{	
  4e:	fc 01       	movw	r30, r24
	*_ddRegister |= (1 << pin);
  50:	a2 81       	ldd	r26, Z+2	; 0x02
  52:	b3 81       	ldd	r27, Z+3	; 0x03
  54:	9c 91       	ld	r25, X
  56:	21 e0       	ldi	r18, 0x01	; 1
  58:	30 e0       	ldi	r19, 0x00	; 0
  5a:	02 c0       	rjmp	.+4      	; 0x60 <_ZN9LedDriver12SetOutputPinEs+0x12>
  5c:	22 0f       	add	r18, r18
  5e:	33 1f       	adc	r19, r19
  60:	6a 95       	dec	r22
  62:	e2 f7       	brpl	.-8      	; 0x5c <_ZN9LedDriver12SetOutputPinEs+0xe>
  64:	92 2b       	or	r25, r18
  66:	9c 93       	st	X, r25
	(*_port) &= ~(1 << pin);
  68:	01 90       	ld	r0, Z+
  6a:	f0 81       	ld	r31, Z
  6c:	e0 2d       	mov	r30, r0
  6e:	80 81       	ld	r24, Z
  70:	20 95       	com	r18
  72:	28 23       	and	r18, r24
  74:	20 83       	st	Z, r18
  76:	08 95       	ret

00000078 <_ZN9LedDriver9TogglePinEs>:
}

void LedDriver::TogglePin(short pin)
{
	*_port ^= (1 << pin);
  78:	dc 01       	movw	r26, r24
  7a:	ed 91       	ld	r30, X+
  7c:	fc 91       	ld	r31, X
  7e:	20 81       	ld	r18, Z
  80:	81 e0       	ldi	r24, 0x01	; 1
  82:	90 e0       	ldi	r25, 0x00	; 0
  84:	02 c0       	rjmp	.+4      	; 0x8a <_ZN9LedDriver9TogglePinEs+0x12>
  86:	88 0f       	add	r24, r24
  88:	99 1f       	adc	r25, r25
  8a:	6a 95       	dec	r22
  8c:	e2 f7       	brpl	.-8      	; 0x86 <_ZN9LedDriver9TogglePinEs+0xe>
  8e:	82 27       	eor	r24, r18
  90:	80 83       	st	Z, r24
  92:	08 95       	ret

00000094 <_ZN9LedDriverC1EPVhS1_>:
}

// default constructor
LedDriver::LedDriver(volatile uint8_t *port, volatile uint8_t * ddRegister)
{
	this->_port = port;
  94:	fc 01       	movw	r30, r24
  96:	71 83       	std	Z+1, r23	; 0x01
  98:	60 83       	st	Z, r22
	this->_ddRegister = ddRegister;
  9a:	53 83       	std	Z+3, r21	; 0x03
  9c:	42 83       	std	Z+2, r20	; 0x02
  9e:	08 95       	ret

000000a0 <main>:

// todo: extract button driver with lambda as action, upd no need, pass ports by address


int main(void)
{
  a0:	cf 93       	push	r28
  a2:	df 93       	push	r29
  a4:	cd b7       	in	r28, 0x3d	; 61
  a6:	de b7       	in	r29, 0x3e	; 62
  a8:	2f 97       	sbiw	r28, 0x0f	; 15
  aa:	0f b6       	in	r0, 0x3f	; 63
  ac:	f8 94       	cli
  ae:	de bf       	out	0x3e, r29	; 62
  b0:	0f be       	out	0x3f, r0	; 63
  b2:	cd bf       	out	0x3d, r28	; 61
	LedDriver driver(&PORTB, &DDRB);
  b4:	47 e3       	ldi	r20, 0x37	; 55
  b6:	50 e0       	ldi	r21, 0x00	; 0
  b8:	68 e3       	ldi	r22, 0x38	; 56
  ba:	70 e0       	ldi	r23, 0x00	; 0
  bc:	ce 01       	movw	r24, r28
  be:	01 96       	adiw	r24, 0x01	; 1
  c0:	e9 df       	rcall	.-46     	; 0x94 <_ZN9LedDriverC1EPVhS1_>
	driver.SetOutputPin(Pin0);
  c2:	60 e0       	ldi	r22, 0x00	; 0
  c4:	70 e0       	ldi	r23, 0x00	; 0
  c6:	ce 01       	movw	r24, r28
  c8:	01 96       	adiw	r24, 0x01	; 1
  ca:	c1 df       	rcall	.-126    	; 0x4e <_ZN9LedDriver12SetOutputPinEs>

	SerialCommunication sc;
  cc:	ce 01       	movw	r24, r28
  ce:	05 96       	adiw	r24, 0x05	; 5
  d0:	5c d0       	rcall	.+184    	; 0x18a <_ZN19SerialCommunicationC1Ev>
	sc.InitUart(25);
  d2:	69 e1       	ldi	r22, 0x19	; 25
  d4:	70 e0       	ldi	r23, 0x00	; 0
  d6:	ce 01       	movw	r24, r28
  d8:	05 96       	adiw	r24, 0x05	; 5
  da:	38 d0       	rcall	.+112    	; 0x14c <_ZN19SerialCommunication8InitUartEj>

	DDRB &= ~(1 << PINB1);
  dc:	b9 98       	cbi	0x17, 1	; 23
	PORTB |= (1<< PINB1);
  de:	c1 9a       	sbi	0x18, 1	; 24

	int isButtonPressed = 0;
	int buttonPressedSampling = 0;
  e0:	00 e0       	ldi	r16, 0x00	; 0
  e2:	10 e0       	ldi	r17, 0x00	; 0
	sc.InitUart(25);

	DDRB &= ~(1 << PINB1);
	PORTB |= (1<< PINB1);

	int isButtonPressed = 0;
  e4:	80 e0       	ldi	r24, 0x00	; 0
  e6:	90 e0       	ldi	r25, 0x00	; 0
  e8:	c1 2c       	mov	r12, r1
  ea:	d1 2c       	mov	r13, r1
  ec:	ec 2c       	mov	r14, r12
  ee:	fd 2c       	mov	r15, r13
			if(buttonPressedSampling > 1500)
			{
				if(isButtonPressed==0)
				{
					driver.TogglePin(Pin0);
					isButtonPressed = 1;
  f0:	aa 24       	eor	r10, r10
  f2:	a3 94       	inc	r10
  f4:	b1 2c       	mov	r11, r1
  f6:	05 c0       	rjmp	.+10     	; 0x102 <main+0x62>

					sc.SendString("\r\n Button pressed. \r\n");
					sc.SendString(buff);
					
				}
				buttonPressedSampling = 0;
  f8:	00 e0       	ldi	r16, 0x00	; 0
  fa:	10 e0       	ldi	r17, 0x00	; 0
  fc:	02 c0       	rjmp	.+4      	; 0x102 <main+0x62>
  fe:	8e 2d       	mov	r24, r14
 100:	9f 2d       	mov	r25, r15
	int buttonReleasedSampling = 0;

    /* Replace with your application code */
    while (1) 
    {
		if(bit_is_clear(PINB,PINB1))
 102:	b1 99       	sbic	0x16, 1	; 22
 104:	fc cf       	rjmp	.-8      	; 0xfe <main+0x5e>
		{
			buttonPressedSampling++;
 106:	0f 5f       	subi	r16, 0xFF	; 255
 108:	1f 4f       	sbci	r17, 0xFF	; 255

			if(buttonPressedSampling > 1500)
 10a:	0d 3d       	cpi	r16, 0xDD	; 221
 10c:	25 e0       	ldi	r18, 0x05	; 5
 10e:	12 07       	cpc	r17, r18
 110:	c4 f3       	brlt	.-16     	; 0x102 <main+0x62>
			{
				if(isButtonPressed==0)
 112:	00 97       	sbiw	r24, 0x00	; 0
 114:	89 f7       	brne	.-30     	; 0xf8 <main+0x58>
				{
					driver.TogglePin(Pin0);
 116:	6c 2d       	mov	r22, r12
 118:	7d 2d       	mov	r23, r13
 11a:	ce 01       	movw	r24, r28
 11c:	01 96       	adiw	r24, 0x01	; 1
 11e:	ac df       	rcall	.-168    	; 0x78 <_ZN9LedDriver9TogglePinEs>
    } else if (__radix < 2 || __radix > 36) {
	*__s = 0;
	return __s;
    } else {
	extern char *__itoa_ncheck (int, char *, unsigned char);
	return __itoa_ncheck (__val, __s, __radix);
 120:	4a e0       	ldi	r20, 0x0A	; 10
 122:	be 01       	movw	r22, r28
 124:	6a 5f       	subi	r22, 0xFA	; 250
 126:	7f 4f       	sbci	r23, 0xFF	; 255
 128:	c8 01       	movw	r24, r16
 12a:	30 d0       	rcall	.+96     	; 0x18c <__itoa_ncheck>
					
					char buff[10];

					itoa(buttonPressedSampling,buff,10);

					sc.SendString("\r\n Button pressed. \r\n");
 12c:	60 e6       	ldi	r22, 0x60	; 96
 12e:	70 e0       	ldi	r23, 0x00	; 0
 130:	ce 01       	movw	r24, r28
 132:	05 96       	adiw	r24, 0x05	; 5
 134:	16 d0       	rcall	.+44     	; 0x162 <_ZN19SerialCommunication10SendStringEPKc>
					sc.SendString(buff);
 136:	be 01       	movw	r22, r28
 138:	6a 5f       	subi	r22, 0xFA	; 250
 13a:	7f 4f       	sbci	r23, 0xFF	; 255
 13c:	ce 01       	movw	r24, r28
 13e:	05 96       	adiw	r24, 0x05	; 5
 140:	10 d0       	rcall	.+32     	; 0x162 <_ZN19SerialCommunication10SendStringEPKc>
					
				}
				buttonPressedSampling = 0;
 142:	00 e0       	ldi	r16, 0x00	; 0
 144:	10 e0       	ldi	r17, 0x00	; 0
			if(buttonPressedSampling > 1500)
			{
				if(isButtonPressed==0)
				{
					driver.TogglePin(Pin0);
					isButtonPressed = 1;
 146:	8a 2d       	mov	r24, r10
 148:	9b 2d       	mov	r25, r11
 14a:	db cf       	rjmp	.-74     	; 0x102 <main+0x62>

0000014c <_ZN19SerialCommunication8InitUartEj>:
#include <avr/io.h>
#include "SerialCommunication.h"

 void SerialCommunication::InitUart(unsigned int usartBaudRateRegisterValue)
{
	UBRRL = (unsigned char) usartBaudRateRegisterValue;
 14c:	69 b9       	out	0x09, r22	; 9
	UBRRH = (unsigned char) (usartBaudRateRegisterValue >> 8);
 14e:	70 bd       	out	0x20, r23	; 32

	// universal control and status registers 
	// REGISTeR B 
	// 8 Data bits, receive and transmit enabled, receive complete interrupt enabled
	UCSRB = (( 1 << TXEN ) | (1<< RXEN) | (1 << RXCIE));
 150:	88 e9       	ldi	r24, 0x98	; 152
 152:	8a b9       	out	0x0a, r24	; 10

	// REGISTER C
	// Set the most used serial settings: asynchronous, no parity, 8 bit, 1 stop bit.
	// The ATmega8 uses an URSEL bit, which is not present on newer chips.
	UCSRC = (1 << URSEL) | (1 << UCSZ1) | ( 1 << UCSZ0); 
 154:	86 e8       	ldi	r24, 0x86	; 134
 156:	80 bd       	out	0x20, r24	; 32
 158:	08 95       	ret

0000015a <_ZN19SerialCommunication8SendCharEh>:
}

void SerialCommunication::SendChar( unsigned char data )
{
	/* Wait for empty transmit buffer */
	while ( !( UCSRA & (1<<UDRE)) )
 15a:	5d 9b       	sbis	0x0b, 5	; 11
 15c:	fe cf       	rjmp	.-4      	; 0x15a <_ZN19SerialCommunication8SendCharEh>
	;
	/* Put data into buffer, sends the data */
	UDR = data;
 15e:	6c b9       	out	0x0c, r22	; 12
 160:	08 95       	ret

00000162 <_ZN19SerialCommunication10SendStringEPKc>:
}

void SerialCommunication::SendString(const char * str)
{
 162:	0f 93       	push	r16
 164:	1f 93       	push	r17
 166:	cf 93       	push	r28
 168:	df 93       	push	r29
 16a:	eb 01       	movw	r28, r22
	while(*str)
 16c:	68 81       	ld	r22, Y
 16e:	66 23       	and	r22, r22
 170:	39 f0       	breq	.+14     	; 0x180 <_ZN19SerialCommunication10SendStringEPKc+0x1e>
 172:	8c 01       	movw	r16, r24
 174:	21 96       	adiw	r28, 0x01	; 1
	{
		SendChar(*str);
 176:	c8 01       	movw	r24, r16
 178:	f0 df       	rcall	.-32     	; 0x15a <_ZN19SerialCommunication8SendCharEh>
	UDR = data;
}

void SerialCommunication::SendString(const char * str)
{
	while(*str)
 17a:	69 91       	ld	r22, Y+
 17c:	61 11       	cpse	r22, r1
 17e:	fb cf       	rjmp	.-10     	; 0x176 <_ZN19SerialCommunication10SendStringEPKc+0x14>
	{
		SendChar(*str);
		str++;
	}
}
 180:	df 91       	pop	r29
 182:	cf 91       	pop	r28
 184:	1f 91       	pop	r17
 186:	0f 91       	pop	r16
 188:	08 95       	ret

0000018a <_ZN19SerialCommunicationC1Ev>:

// default constructor
SerialCommunication::SerialCommunication()
 18a:	08 95       	ret

0000018c <__itoa_ncheck>:
 18c:	bb 27       	eor	r27, r27
 18e:	4a 30       	cpi	r20, 0x0A	; 10
 190:	31 f4       	brne	.+12     	; 0x19e <__itoa_ncheck+0x12>
 192:	99 23       	and	r25, r25
 194:	22 f4       	brpl	.+8      	; 0x19e <__itoa_ncheck+0x12>
 196:	bd e2       	ldi	r27, 0x2D	; 45
 198:	90 95       	com	r25
 19a:	81 95       	neg	r24
 19c:	9f 4f       	sbci	r25, 0xFF	; 255
 19e:	01 c0       	rjmp	.+2      	; 0x1a2 <__utoa_common>

000001a0 <__utoa_ncheck>:
 1a0:	bb 27       	eor	r27, r27

000001a2 <__utoa_common>:
 1a2:	fb 01       	movw	r30, r22
 1a4:	55 27       	eor	r21, r21
 1a6:	aa 27       	eor	r26, r26
 1a8:	88 0f       	add	r24, r24
 1aa:	99 1f       	adc	r25, r25
 1ac:	aa 1f       	adc	r26, r26
 1ae:	a4 17       	cp	r26, r20
 1b0:	10 f0       	brcs	.+4      	; 0x1b6 <__utoa_common+0x14>
 1b2:	a4 1b       	sub	r26, r20
 1b4:	83 95       	inc	r24
 1b6:	50 51       	subi	r21, 0x10	; 16
 1b8:	b9 f7       	brne	.-18     	; 0x1a8 <__utoa_common+0x6>
 1ba:	a0 5d       	subi	r26, 0xD0	; 208
 1bc:	aa 33       	cpi	r26, 0x3A	; 58
 1be:	08 f0       	brcs	.+2      	; 0x1c2 <__utoa_common+0x20>
 1c0:	a9 5d       	subi	r26, 0xD9	; 217
 1c2:	a1 93       	st	Z+, r26
 1c4:	00 97       	sbiw	r24, 0x00	; 0
 1c6:	79 f7       	brne	.-34     	; 0x1a6 <__utoa_common+0x4>
 1c8:	b1 11       	cpse	r27, r1
 1ca:	b1 93       	st	Z+, r27
 1cc:	11 92       	st	Z+, r1
 1ce:	cb 01       	movw	r24, r22
 1d0:	00 c0       	rjmp	.+0      	; 0x1d2 <strrev>

000001d2 <strrev>:
 1d2:	dc 01       	movw	r26, r24
 1d4:	fc 01       	movw	r30, r24
 1d6:	67 2f       	mov	r22, r23
 1d8:	71 91       	ld	r23, Z+
 1da:	77 23       	and	r23, r23
 1dc:	e1 f7       	brne	.-8      	; 0x1d6 <strrev+0x4>
 1de:	32 97       	sbiw	r30, 0x02	; 2
 1e0:	04 c0       	rjmp	.+8      	; 0x1ea <strrev+0x18>
 1e2:	7c 91       	ld	r23, X
 1e4:	6d 93       	st	X+, r22
 1e6:	70 83       	st	Z, r23
 1e8:	62 91       	ld	r22, -Z
 1ea:	ae 17       	cp	r26, r30
 1ec:	bf 07       	cpc	r27, r31
 1ee:	c8 f3       	brcs	.-14     	; 0x1e2 <strrev+0x10>
 1f0:	08 95       	ret

000001f2 <_exit>:
 1f2:	f8 94       	cli

000001f4 <__stop_program>:
 1f4:	ff cf       	rjmp	.-2      	; 0x1f4 <__stop_program>
